; ModuleID = '43/276.c'
source_filename = "43/276.c"
target datalayout = "e-m:e-p270:32:32-p271:32:32-p272:64:64-i64:64-f80:128-n8:16:32:64-S128"
target triple = "x86_64-pc-linux-gnu"

@.str = private unnamed_addr constant [3 x i8] c"%d\00", align 1
@.str.1 = private unnamed_addr constant [7 x i8] c"%d %d\0A\00", align 1

; Function Attrs: noinline nounwind uwtable
define dso_local i32 @main(i32 %0, i8** %1) #0 {
  %3 = alloca i32, align 4
  %4 = alloca i32, align 4
  %5 = alloca i8**, align 8
  %6 = alloca i32, align 4
  %7 = alloca i32, align 4
  %8 = alloca i32, align 4
  %9 = alloca i32, align 4
  %10 = alloca i32, align 4
  store i32 0, i32* %3, align 4
  store i32 %0, i32* %4, align 4
  store i8** %1, i8*** %5, align 8
  %11 = call i32 (i8*, ...) @__isoc99_scanf(i8* getelementptr inbounds ([3 x i8], [3 x i8]* @.str, i64 0, i64 0), i32* %6)
  store i32 3, i32* %7, align 4
  br label %12

12:                                               ; preds = %66, %2
  %13 = load i32, i32* %7, align 4
  %14 = load i32, i32* %6, align 4
  %15 = sdiv i32 %14, 2
  %16 = icmp sle i32 %13, %15
  br i1 %16, label %17, label %69

17:                                               ; preds = %12
  store i32 1, i32* %9, align 4
  store i32 1, i32* %10, align 4
  store i32 2, i32* %8, align 4
  br label %18

18:                                               ; preds = %30, %17
  %19 = load i32, i32* %8, align 4
  %20 = load i32, i32* %7, align 4
  %21 = sub nsw i32 %20, 1
  %22 = icmp sle i32 %19, %21
  br i1 %22, label %23, label %33

23:                                               ; preds = %18
  %24 = load i32, i32* %7, align 4
  %25 = load i32, i32* %8, align 4
  %26 = srem i32 %24, %25
  %27 = icmp eq i32 %26, 0
  br i1 %27, label %28, label %29

28:                                               ; preds = %23
  store i32 0, i32* %9, align 4
  br label %33

29:                                               ; preds = %23
  br label %30

30:                                               ; preds = %29
  %31 = load i32, i32* %8, align 4
  %32 = add nsw i32 %31, 1
  store i32 %32, i32* %8, align 4
  br label %18

33:                                               ; preds = %28, %18
  store i32 2, i32* %8, align 4
  br label %34

34:                                               ; preds = %50, %33
  %35 = load i32, i32* %8, align 4
  %36 = load i32, i32* %6, align 4
  %37 = load i32, i32* %7, align 4
  %38 = sub nsw i32 %36, %37
  %39 = sub nsw i32 %38, 1
  %40 = icmp sle i32 %35, %39
  br i1 %40, label %41, label %53

41:                                               ; preds = %34
  %42 = load i32, i32* %6, align 4
  %43 = load i32, i32* %7, align 4
  %44 = sub nsw i32 %42, %43
  %45 = load i32, i32* %8, align 4
  %46 = srem i32 %44, %45
  %47 = icmp eq i32 %46, 0
  br i1 %47, label %48, label %49

48:                                               ; preds = %41
  store i32 0, i32* %10, align 4
  br label %53

49:                                               ; preds = %41
  br label %50

50:                                               ; preds = %49
  %51 = load i32, i32* %8, align 4
  %52 = add nsw i32 %51, 1
  store i32 %52, i32* %8, align 4
  br label %34

53:                                               ; preds = %48, %34
  %54 = load i32, i32* %9, align 4
  %55 = icmp eq i32 %54, 1
  br i1 %55, label %56, label %65

56:                                               ; preds = %53
  %57 = load i32, i32* %10, align 4
  %58 = icmp eq i32 %57, 1
  br i1 %58, label %59, label %65

59:                                               ; preds = %56
  %60 = load i32, i32* %7, align 4
  %61 = load i32, i32* %6, align 4
  %62 = load i32, i32* %7, align 4
  %63 = sub nsw i32 %61, %62
  %64 = call i32 (i8*, ...) @printf(i8* getelementptr inbounds ([7 x i8], [7 x i8]* @.str.1, i64 0, i64 0), i32 %60, i32 %63)
  br label %65

65:                                               ; preds = %59, %56, %53
  br label %66

66:                                               ; preds = %65
  %67 = load i32, i32* %7, align 4
  %68 = add nsw i32 %67, 2
  store i32 %68, i32* %7, align 4
  br label %12

69:                                               ; preds = %12
  ret i32 0
}

declare dso_local i32 @__isoc99_scanf(i8*, ...) #1

declare dso_local i32 @printf(i8*, ...) #1


!llvm.module.flags = !{!0}
!llvm.ident = !{!1}

!0 = !{i32 1, !"wchar_size", i32 4}
!1 = !{!"clang version 10.0.0-4ubuntu1 "}
